; Function Attrs: mustprogress nofree norecurse nosync nounwind memory(argmem: write) uwtable
define noundef ptr @_ZN6google8protobuf23InternalFastHexToBufferEmPci(i64 noundef %0, ptr noundef returned writeonly %1, i32 noundef %2) local_unnamed_addr #16 {
  %4 = sext i32 %2 to i64
  %5 = getelementptr inbounds i8, ptr %1, i64 %4
  store i8 0, ptr %5, align 1, !tbaa !11
  %6 = icmp sgt i32 %2, 0
  br i1 %6, label %.lr.ph.preheader, label %._crit_edge

.lr.ph.preheader:                                 ; preds = %3
  %7 = zext nneg i32 %2 to i64
  br label %.lr.ph

._crit_edge:                                      ; preds = %.lr.ph, %3
  ret ptr %1

.lr.ph:                                           ; preds = %.lr.ph.preheader, %.lr.ph
  %indvars.iv = phi i64 [ %7, %.lr.ph.preheader ], [ %indvars.iv.next, %.lr.ph ]
  %.0910 = phi i64 [ %0, %.lr.ph.preheader ], [ %12, %.lr.ph ]
  %indvars.iv.next = add nsw i64 %indvars.iv, -1
  %8 = and i64 %.0910, 15
  %9 = getelementptr inbounds nuw i8, ptr @_ZZN6google8protobuf7strings8AlphaNumC1ENS1_3HexEE9hexdigits, i64 %8
  %10 = load i8, ptr %9, align 1, !tbaa !11
  %11 = getelementptr inbounds nuw i8, ptr %1, i64 %indvars.iv.next
  store i8 %10, ptr %11, align 1, !tbaa !11
  %12 = lshr i64 %.0910, 4
  %13 = icmp samesign ugt i64 %indvars.iv, 1
  br i1 %13, label %.lr.ph, label %._crit_edge, !llvm.loop !72
}